target datalayout = "e-m:e-p270:32:32-p271:32:32-p272:64:64-i64:64-i128:128-f80:128-n8:16:32:64-S128"
target triple = "x86_64-pc-linux-gnu"

%struct.GLFWvidmode = type { i32, i32, i32, i32, i32, i32 }
%struct._GLFWmonitor = type { [128 x i8], ptr, i32, i32, ptr, ptr, i32, %struct.GLFWvidmode, %struct.GLFWgammaramp, %struct.GLFWgammaramp, %struct._GLFWmonitorWayland, %struct._GLFWmonitorX11, %struct._GLFWmonitorNull }
%struct.GLFWgammaramp = type { ptr, ptr, ptr, i32 }
%struct._GLFWmonitorWayland = type { ptr, i32, i32, i32, i32, i32 }
%struct._GLFWmonitorX11 = type { i64, i64, i64, i32 }
%struct._GLFWmonitorNull = type { %struct.GLFWgammaramp }

; Function Attrs: nounwind uwtable
define hidden i32 @_glfwGetGammaRampNull(ptr noundef %0, ptr noundef %1) #0 {
  %3 = alloca ptr, align 8
  %4 = alloca ptr, align 8
  %5 = alloca i32, align 4
  %6 = alloca float, align 4
  %7 = alloca float, align 4
  store ptr %0, ptr %3, align 8, !tbaa !11
  store ptr %1, ptr %4, align 8, !tbaa !26
  %8 = load ptr, ptr %3, align 8, !tbaa !11
  %9 = getelementptr inbounds nuw %struct._GLFWmonitor, ptr %8, i32 0, i32 12
  %10 = getelementptr inbounds nuw %struct._GLFWmonitorNull, ptr %9, i32 0, i32 0
  %11 = getelementptr inbounds nuw %struct.GLFWgammaramp, ptr %10, i32 0, i32 3
  %12 = load i32, ptr %11, align 8, !tbaa !28
  %13 = icmp ne i32 %12, 0
  br i1 %13, label %77, label %14

14:                                               ; preds = %2
  call void @llvm.lifetime.start.p0(i64 4, ptr %5) #6
  %15 = load ptr, ptr %3, align 8, !tbaa !11
  %16 = getelementptr inbounds nuw %struct._GLFWmonitor, ptr %15, i32 0, i32 12
  %17 = getelementptr inbounds nuw %struct._GLFWmonitorNull, ptr %16, i32 0, i32 0
  call void @_glfwAllocGammaArrays(ptr noundef %17, i32 noundef 256)
  store i32 0, ptr %5, align 4, !tbaa !20
  br label %18

18:                                               ; preds = %73, %14
  %19 = load i32, ptr %5, align 4, !tbaa !20
  %20 = load ptr, ptr %3, align 8, !tbaa !11
  %21 = getelementptr inbounds nuw %struct._GLFWmonitor, ptr %20, i32 0, i32 12
  %22 = getelementptr inbounds nuw %struct._GLFWmonitorNull, ptr %21, i32 0, i32 0
  %23 = getelementptr inbounds nuw %struct.GLFWgammaramp, ptr %22, i32 0, i32 3
  %24 = load i32, ptr %23, align 8, !tbaa !28
  %25 = icmp ult i32 %19, %24
  br i1 %25, label %26, label %76

26:                                               ; preds = %18
  call void @llvm.lifetime.start.p0(i64 4, ptr %6) #6
  store float 0x40019999A0000000, ptr %6, align 4, !tbaa !3
  call void @llvm.lifetime.start.p0(i64 4, ptr %7) #6
  %27 = load i32, ptr %5, align 4, !tbaa !20
  %28 = uitofp i32 %27 to float
  %29 = load ptr, ptr %3, align 8, !tbaa !11
  %30 = getelementptr inbounds nuw %struct._GLFWmonitor, ptr %29, i32 0, i32 12
  %31 = getelementptr inbounds nuw %struct._GLFWmonitorNull, ptr %30, i32 0, i32 0
  %32 = getelementptr inbounds nuw %struct.GLFWgammaramp, ptr %31, i32 0, i32 3
  %33 = load i32, ptr %32, align 8, !tbaa !28
  %34 = sub i32 %33, 1
  %35 = uitofp i32 %34 to float
  %36 = fdiv float %28, %35
  store float %36, ptr %7, align 4, !tbaa !3
  %37 = load float, ptr %7, align 4, !tbaa !3
  %38 = call float @powf(float noundef %37, float noundef 0x3FDD1745C0000000) #6, !tbaa !20
  %39 = fmul float %38, 6.553500e+04
  %40 = fadd float %39, 5.000000e-01
  store float %40, ptr %7, align 4, !tbaa !3
  %41 = load float, ptr %7, align 4, !tbaa !3
  %42 = call float @llvm.minnum.f32(float %41, float 6.553500e+04)
  store float %42, ptr %7, align 4, !tbaa !3
  %43 = load float, ptr %7, align 4, !tbaa !3
  %44 = fptoui float %43 to i16
  %45 = load ptr, ptr %3, align 8, !tbaa !11
  %46 = getelementptr inbounds nuw %struct._GLFWmonitor, ptr %45, i32 0, i32 12
  %47 = getelementptr inbounds nuw %struct._GLFWmonitorNull, ptr %46, i32 0, i32 0
  %48 = getelementptr inbounds nuw %struct.GLFWgammaramp, ptr %47, i32 0, i32 0
  %49 = load ptr, ptr %48, align 8, !tbaa !38
  %50 = load i32, ptr %5, align 4, !tbaa !20
  %51 = zext i32 %50 to i64
  %52 = getelementptr inbounds nuw i16, ptr %49, i64 %51
  store i16 %44, ptr %52, align 2, !tbaa !39
  %53 = load float, ptr %7, align 4, !tbaa !3
  %54 = fptoui float %53 to i16
  %55 = load ptr, ptr %3, align 8, !tbaa !11
  %56 = getelementptr inbounds nuw %struct._GLFWmonitor, ptr %55, i32 0, i32 12
  %57 = getelementptr inbounds nuw %struct._GLFWmonitorNull, ptr %56, i32 0, i32 0
  %58 = getelementptr inbounds nuw %struct.GLFWgammaramp, ptr %57, i32 0, i32 1
  %59 = load ptr, ptr %58, align 8, !tbaa !41
  %60 = load i32, ptr %5, align 4, !tbaa !20
  %61 = zext i32 %60 to i64
  %62 = getelementptr inbounds nuw i16, ptr %59, i64 %61
  store i16 %54, ptr %62, align 2, !tbaa !39
  %63 = load float, ptr %7, align 4, !tbaa !3
  %64 = fptoui float %63 to i16
  %65 = load ptr, ptr %3, align 8, !tbaa !11
  %66 = getelementptr inbounds nuw %struct._GLFWmonitor, ptr %65, i32 0, i32 12
  %67 = getelementptr inbounds nuw %struct._GLFWmonitorNull, ptr %66, i32 0, i32 0
  %68 = getelementptr inbounds nuw %struct.GLFWgammaramp, ptr %67, i32 0, i32 2
  %69 = load ptr, ptr %68, align 8, !tbaa !42
  %70 = load i32, ptr %5, align 4, !tbaa !20
  %71 = zext i32 %70 to i64
  %72 = getelementptr inbounds nuw i16, ptr %69, i64 %71
  store i16 %64, ptr %72, align 2, !tbaa !39
  call void @llvm.lifetime.end.p0(i64 4, ptr %7) #6
  call void @llvm.lifetime.end.p0(i64 4, ptr %6) #6
  br label %73

73:                                               ; preds = %26
  %74 = load i32, ptr %5, align 4, !tbaa !20
  %75 = add i32 %74, 1
  store i32 %75, ptr %5, align 4, !tbaa !20
  br label %18

76:                                               ; preds = %18
  call void @llvm.lifetime.end.p0(i64 4, ptr %5) #6
  br label %77

77:                                               ; preds = %76, %2
  %78 = load ptr, ptr %4, align 8, !tbaa !26
  %79 = load ptr, ptr %3, align 8, !tbaa !11
  %80 = getelementptr inbounds nuw %struct._GLFWmonitor, ptr %79, i32 0, i32 12
  %81 = getelementptr inbounds nuw %struct._GLFWmonitorNull, ptr %80, i32 0, i32 0
  %82 = getelementptr inbounds nuw %struct.GLFWgammaramp, ptr %81, i32 0, i32 3
  %83 = load i32, ptr %82, align 8, !tbaa !28
  call void @_glfwAllocGammaArrays(ptr noundef %78, i32 noundef %83)
  %84 = load ptr, ptr %4, align 8, !tbaa !26
  %85 = getelementptr inbounds nuw %struct.GLFWgammaramp, ptr %84, i32 0, i32 0
  %86 = load ptr, ptr %85, align 8, !tbaa !43
  %87 = load ptr, ptr %3, align 8, !tbaa !11
  %88 = getelementptr inbounds nuw %struct._GLFWmonitor, ptr %87, i32 0, i32 12
  %89 = getelementptr inbounds nuw %struct._GLFWmonitorNull, ptr %88, i32 0, i32 0
  %90 = getelementptr inbounds nuw %struct.GLFWgammaramp, ptr %89, i32 0, i32 0
  %91 = load ptr, ptr %90, align 8, !tbaa !38
  %92 = load ptr, ptr %4, align 8, !tbaa !26
  %93 = getelementptr inbounds nuw %struct.GLFWgammaramp, ptr %92, i32 0, i32 3
  %94 = load i32, ptr %93, align 8, !tbaa !44
  %95 = zext i32 %94 to i64
  %96 = mul i64 2, %95
  call void @llvm.memcpy.p0.p0.i64(ptr align 2 %86, ptr align 2 %91, i64 %96, i1 false)
  %97 = load ptr, ptr %4, align 8, !tbaa !26
  %98 = getelementptr inbounds nuw %struct.GLFWgammaramp, ptr %97, i32 0, i32 1
  %99 = load ptr, ptr %98, align 8, !tbaa !45
  %100 = load ptr, ptr %3, align 8, !tbaa !11
  %101 = getelementptr inbounds nuw %struct._GLFWmonitor, ptr %100, i32 0, i32 12
  %102 = getelementptr inbounds nuw %struct._GLFWmonitorNull, ptr %101, i32 0, i32 0
  %103 = getelementptr inbounds nuw %struct.GLFWgammaramp, ptr %102, i32 0, i32 1
  %104 = load ptr, ptr %103, align 8, !tbaa !41
  %105 = load ptr, ptr %4, align 8, !tbaa !26
  %106 = getelementptr inbounds nuw %struct.GLFWgammaramp, ptr %105, i32 0, i32 3
  %107 = load i32, ptr %106, align 8, !tbaa !44
  %108 = zext i32 %107 to i64
  %109 = mul i64 2, %108
  call void @llvm.memcpy.p0.p0.i64(ptr align 2 %99, ptr align 2 %104, i64 %109, i1 false)
  %110 = load ptr, ptr %4, align 8, !tbaa !26
  %111 = getelementptr inbounds nuw %struct.GLFWgammaramp, ptr %110, i32 0, i32 2
  %112 = load ptr, ptr %111, align 8, !tbaa !46
  %113 = load ptr, ptr %3, align 8, !tbaa !11
  %114 = getelementptr inbounds nuw %struct._GLFWmonitor, ptr %113, i32 0, i32 12
  %115 = getelementptr inbounds nuw %struct._GLFWmonitorNull, ptr %114, i32 0, i32 0
  %116 = getelementptr inbounds nuw %struct.GLFWgammaramp, ptr %115, i32 0, i32 2
  %117 = load ptr, ptr %116, align 8, !tbaa !42
  %118 = load ptr, ptr %4, align 8, !tbaa !26
  %119 = getelementptr inbounds nuw %struct.GLFWgammaramp, ptr %118, i32 0, i32 3
  %120 = load i32, ptr %119, align 8, !tbaa !44
  %121 = zext i32 %120 to i64
  %122 = mul i64 2, %121
  call void @llvm.memcpy.p0.p0.i64(ptr align 2 %112, ptr align 2 %117, i64 %122, i1 false)
  ret i32 1
}