; Function Attrs: nounwind uwtable
define hidden noundef i32 @_glfwGetGammaRampNull(ptr noundef %0, ptr noundef %1) local_unnamed_addr #0 {
  %3 = getelementptr inbounds nuw i8, ptr %0, i64 320
  %4 = getelementptr inbounds nuw i8, ptr %0, i64 344
  %5 = load i32, ptr %4, align 8, !tbaa !9
  %.not = icmp eq i32 %5, 0
  br i1 %.not, label %6, label %.loopexit

6:                                                ; preds = %2
  tail call void @_glfwAllocGammaArrays(ptr noundef nonnull %3, i32 noundef 256) #6
  %7 = load i32, ptr %4, align 8, !tbaa !9
  %.not30 = icmp eq i32 %7, 0
  br i1 %.not30, label %.loopexit, label %.lr.ph

.lr.ph:                                           ; preds = %6
  %8 = load ptr, ptr %3, align 8, !tbaa !22
  %9 = getelementptr inbounds nuw i8, ptr %0, i64 328
  %10 = load ptr, ptr %9, align 8, !tbaa !23
  %11 = getelementptr inbounds nuw i8, ptr %0, i64 336
  %12 = load ptr, ptr %11, align 8, !tbaa !24
  br label %13

13:                                               ; preds = %.lr.ph, %13
  %indvars.iv = phi i64 [ 0, %.lr.ph ], [ %indvars.iv.next, %13 ]
  %14 = phi i32 [ %7, %.lr.ph ], [ %28, %13 ]
  %15 = trunc nuw i64 %indvars.iv to i32
  %16 = uitofp i32 %15 to float
  %17 = add i32 %14, -1
  %18 = uitofp i32 %17 to float
  %19 = fdiv float %16, %18
  %20 = tail call float @powf(float noundef %19, float noundef 0x3FDD1745C0000000) #6, !tbaa !3
  %21 = fmul float %20, 6.553500e+04
  %22 = fadd float %21, 5.000000e-01
  %23 = tail call float @llvm.minnum.f32(float %22, float 6.553500e+04)
  %24 = fptoui float %23 to i16
  %25 = getelementptr inbounds nuw i16, ptr %8, i64 %indvars.iv
  store i16 %24, ptr %25, align 2, !tbaa !25
  %26 = getelementptr inbounds nuw i16, ptr %10, i64 %indvars.iv
  store i16 %24, ptr %26, align 2, !tbaa !25
  %27 = getelementptr inbounds nuw i16, ptr %12, i64 %indvars.iv
  store i16 %24, ptr %27, align 2, !tbaa !25
  %indvars.iv.next = add nuw nsw i64 %indvars.iv, 1
  %28 = load i32, ptr %4, align 8, !tbaa !9
  %29 = zext i32 %28 to i64
  %30 = icmp samesign ult i64 %indvars.iv.next, %29
  br i1 %30, label %13, label %.loopexit

.loopexit:                                        ; preds = %13, %6, %2
  %31 = phi i32 [ 0, %6 ], [ %5, %2 ], [ %28, %13 ]
  tail call void @_glfwAllocGammaArrays(ptr noundef %1, i32 noundef %31) #6
  %32 = load ptr, ptr %1, align 8, !tbaa !27
  %33 = load ptr, ptr %3, align 8, !tbaa !22
  %34 = getelementptr inbounds nuw i8, ptr %1, i64 24
  %35 = load i32, ptr %34, align 8, !tbaa !28
  %36 = zext i32 %35 to i64
  %37 = shl nuw nsw i64 %36, 1
  tail call void @llvm.memcpy.p0.p0.i64(ptr align 2 %32, ptr align 2 %33, i64 %37, i1 false)
  %38 = getelementptr inbounds nuw i8, ptr %1, i64 8
  %39 = load ptr, ptr %38, align 8, !tbaa !29
  %40 = getelementptr inbounds nuw i8, ptr %0, i64 328
  %41 = load ptr, ptr %40, align 8, !tbaa !23
  %42 = load i32, ptr %34, align 8, !tbaa !28
  %43 = zext i32 %42 to i64
  %44 = shl nuw nsw i64 %43, 1
  tail call void @llvm.memcpy.p0.p0.i64(ptr align 2 %39, ptr align 2 %41, i64 %44, i1 false)
  %45 = getelementptr inbounds nuw i8, ptr %1, i64 16
  %46 = load ptr, ptr %45, align 8, !tbaa !30
  %47 = getelementptr inbounds nuw i8, ptr %0, i64 336
  %48 = load ptr, ptr %47, align 8, !tbaa !24
  %49 = load i32, ptr %34, align 8, !tbaa !28
  %50 = zext i32 %49 to i64
  %51 = shl nuw nsw i64 %50, 1
  tail call void @llvm.memcpy.p0.p0.i64(ptr align 2 %46, ptr align 2 %48, i64 %51, i1 false)
  ret i32 1
}